; Function Attrs: nounwind uwtable
define internal ptr @union_richcompare(ptr noundef readonly captures(none) %0, ptr noundef readonly captures(none) %1, i32 noundef %2) #0 {
  %4 = getelementptr i8, ptr %1, i64 8
  %.val = load ptr, ptr %4, align 8, !tbaa !9
  %5 = icmp ne ptr %.val, @_PyUnion_Type
  %6 = add i32 %2, -4
  %or.cond = icmp ult i32 %6, -2
  %or.cond17 = or i1 %or.cond, %5
  br i1 %or.cond17, label %Py_DECREF.exit21, label %7

7:                                                ; preds = %3
  %8 = getelementptr inbounds nuw i8, ptr %0, i64 16
  %9 = load ptr, ptr %8, align 8, !tbaa !22
  %10 = tail call ptr @PySet_New(ptr noundef %9) #5
  %11 = icmp eq ptr %10, null
  br i1 %11, label %Py_DECREF.exit21, label %12

12:                                               ; preds = %7
  %13 = getelementptr inbounds nuw i8, ptr %1, i64 16
  %14 = load ptr, ptr %13, align 8, !tbaa !22
  %15 = tail call ptr @PySet_New(ptr noundef %14) #5
  %16 = icmp eq ptr %15, null
  br i1 %16, label %17, label %22

17:                                               ; preds = %12
  %18 = load i32, ptr %10, align 8, !tbaa !27
  %.not.i20 = icmp sgt i32 %18, -1
  br i1 %.not.i20, label %19, label %Py_DECREF.exit21

19:                                               ; preds = %17
  %20 = add nsw i32 %18, -1
  store i32 %20, ptr %10, align 8, !tbaa !27
  %21 = icmp eq i32 %20, 0
  br i1 %21, label %Py_DECREF.exit21.sink.split, label %Py_DECREF.exit21

22:                                               ; preds = %12
  %23 = tail call ptr @PyObject_RichCompare(ptr noundef nonnull %10, ptr noundef nonnull %15, i32 noundef %2) #5
  %24 = load i32, ptr %15, align 8, !tbaa !27
  %.not.i18 = icmp sgt i32 %24, -1
  br i1 %.not.i18, label %25, label %Py_DECREF.exit19

25:                                               ; preds = %22
  %26 = add nsw i32 %24, -1
  store i32 %26, ptr %15, align 8, !tbaa !27
  %27 = icmp eq i32 %26, 0
  br i1 %27, label %28, label %Py_DECREF.exit19

28:                                               ; preds = %25
  tail call void @_Py_Dealloc(ptr noundef nonnull %15) #5
  br label %Py_DECREF.exit19

Py_DECREF.exit19:                                 ; preds = %22, %25, %28
  %29 = load i32, ptr %10, align 8, !tbaa !27
  %.not.i = icmp sgt i32 %29, -1
  br i1 %.not.i, label %30, label %Py_DECREF.exit21

30:                                               ; preds = %Py_DECREF.exit19
  %31 = add nsw i32 %29, -1
  store i32 %31, ptr %10, align 8, !tbaa !27
  %32 = icmp eq i32 %31, 0
  br i1 %32, label %Py_DECREF.exit21.sink.split, label %Py_DECREF.exit21

Py_DECREF.exit21.sink.split:                      ; preds = %30, %19
  %.0.ph = phi ptr [ null, %19 ], [ %23, %30 ]
  tail call void @_Py_Dealloc(ptr noundef nonnull %10) #5
  br label %Py_DECREF.exit21

Py_DECREF.exit21:                                 ; preds = %Py_DECREF.exit21.sink.split, %30, %Py_DECREF.exit19, %19, %17, %7, %3
  %.0 = phi ptr [ @_Py_NotImplementedStruct, %3 ], [ null, %7 ], [ null, %17 ], [ null, %19 ], [ %23, %Py_DECREF.exit19 ], [ %23, %30 ], [ %.0.ph, %Py_DECREF.exit21.sink.split ]
  ret ptr %.0
}